target datalayout = "e-m:e-p270:32:32-p271:32:32-p272:64:64-i64:64-i128:128-f80:128-n8:16:32:64-S128"
target triple = "x86_64-pc-linux-gnu"

%struct.strbuf = type { i64, i64, ptr }
%struct.anon.0 = type { ptr, ptr }
%struct.option = type { i32, i32, ptr, ptr, ptr, ptr, i32, ptr, i64, ptr, i64, ptr }

@.str.7 = private unnamed_addr constant [5 x i8] c"\09%s\0A\00", align 1
@.str.13 = private unnamed_addr constant [4 x i8] c"run\00", align 1
@.str.135 = private unnamed_addr constant [12 x i8] c"maintenance\00", align 1
@__const.cmd_run.buf = private unnamed_addr constant %struct.strbuf { i64 0, i64 0, ptr @strbuf_slopbuf }, align 8
@.str.158 = private unnamed_addr constant [41 x i8] c"scalar run <task> [<enlistment>]\0ATasks:\0A\00", align 1
@.str.159 = private unnamed_addr constant [4 x i8] c"all\00", align 1
@.str.160 = private unnamed_addr constant [19 x i8] c"no such task: '%s'\00", align 1
@.str.161 = private unnamed_addr constant [7 x i8] c"--task\00", align 1

; Function Attrs: inlinehint nounwind uwtable
define internal i32 @const_error() #5 {
  ret i32 -1
}

; Function Attrs: inlinehint nounwind uwtable
define internal void @strbuf_addstr(ptr noundef %0, ptr noundef %1) #5 {
  %3 = alloca ptr, align 8
  %4 = alloca ptr, align 8
  store ptr %0, ptr %3, align 8, !tbaa !26
  store ptr %1, ptr %4, align 8, !tbaa !4
  %5 = load ptr, ptr %3, align 8, !tbaa !26
  %6 = load ptr, ptr %4, align 8, !tbaa !4
  %7 = load ptr, ptr %4, align 8, !tbaa !4
  %8 = call i64 @strlen(ptr noundef %7) #13
  call void @strbuf_add(ptr noundef %5, ptr noundef %6, i64 noundef %8)
  ret void
}

; Function Attrs: nounwind uwtable
define internal i32 @cmd_run(i32 noundef %0, ptr noundef %1) #0 {
  %3 = alloca i32, align 4
  %4 = alloca i32, align 4
  %5 = alloca ptr, align 8
  %6 = alloca [1 x %struct.option], align 16
  %7 = alloca [6 x %struct.anon.0], align 16
  %8 = alloca %struct.strbuf, align 8
  %9 = alloca [2 x ptr], align 16
  %10 = alloca i32, align 4
  %11 = alloca i32, align 4
  store i32 %0, ptr %4, align 4, !tbaa !11
  store ptr %1, ptr %5, align 8, !tbaa !13
  call void @llvm.lifetime.start.p0(i64 88, ptr %6) #12
  call void @llvm.memset.p0.i64(ptr align 16 %6, i8 0, i64 88, i1 false)
  call void @llvm.lifetime.start.p0(i64 96, ptr %7) #12
  call void @llvm.memcpy.p0.p0.i64(ptr align 16 %7, ptr align 16 @__const.cmd_run.tasks, i64 96, i1 false)
  call void @llvm.lifetime.start.p0(i64 24, ptr %8) #12
  call void @llvm.memcpy.p0.p0.i64(ptr align 8 %8, ptr align 8 @__const.cmd_run.buf, i64 24, i1 false)
  call void @llvm.lifetime.start.p0(i64 16, ptr %9) #12
  call void @llvm.memset.p0.i64(ptr align 16 %9, i8 0, i64 16, i1 false)
  call void @llvm.lifetime.start.p0(i64 4, ptr %10) #12
  call void @strbuf_addstr(ptr noundef %8, ptr noundef @.str.158)
  store i32 0, ptr %10, align 4, !tbaa !11
  br label %12

12:                                               ; preds = %25, %2
  %13 = load i32, ptr %10, align 4, !tbaa !11
  %14 = sext i32 %13 to i64
  %15 = getelementptr inbounds [6 x %struct.anon.0], ptr %7, i64 0, i64 %14
  %16 = getelementptr inbounds nuw %struct.anon.0, ptr %15, i32 0, i32 0
  %17 = load ptr, ptr %16, align 16, !tbaa !45
  %18 = icmp ne ptr %17, null
  br i1 %18, label %19, label %28

19:                                               ; preds = %12
  %20 = load i32, ptr %10, align 4, !tbaa !11
  %21 = sext i32 %20 to i64
  %22 = getelementptr inbounds [6 x %struct.anon.0], ptr %7, i64 0, i64 %21
  %23 = getelementptr inbounds nuw %struct.anon.0, ptr %22, i32 0, i32 0
  %24 = load ptr, ptr %23, align 16, !tbaa !45
  call void (ptr, ptr, ...) @strbuf_addf(ptr noundef %8, ptr noundef @.str.7, ptr noundef %24)
  br label %25

25:                                               ; preds = %19
  %26 = load i32, ptr %10, align 4, !tbaa !11
  %27 = add nsw i32 %26, 1
  store i32 %27, ptr %10, align 4, !tbaa !11
  br label %12, !llvm.loop !47

28:                                               ; preds = %12
  %29 = getelementptr inbounds nuw %struct.strbuf, ptr %8, i32 0, i32 2
  %30 = load ptr, ptr %29, align 8, !tbaa !23
  %31 = getelementptr inbounds [2 x ptr], ptr %9, i64 0, i64 0
  store ptr %30, ptr %31, align 16, !tbaa !4
  %32 = load i32, ptr %4, align 4, !tbaa !11
  %33 = load ptr, ptr %5, align 8, !tbaa !13
  %34 = getelementptr inbounds [1 x %struct.option], ptr %6, i64 0, i64 0
  %35 = getelementptr inbounds [2 x ptr], ptr %9, i64 0, i64 0
  %36 = call i32 @parse_options(i32 noundef %32, ptr noundef %33, ptr noundef null, ptr noundef %34, ptr noundef %35, i32 noundef 0)
  store i32 %36, ptr %4, align 4, !tbaa !11
  %37 = load i32, ptr %4, align 4, !tbaa !11
  %38 = icmp ne i32 %37, 0
  br i1 %38, label %42, label %39

39:                                               ; preds = %28
  %40 = getelementptr inbounds [2 x ptr], ptr %9, i64 0, i64 0
  %41 = getelementptr inbounds [1 x %struct.option], ptr %6, i64 0, i64 0
  call void @usage_with_options(ptr noundef %40, ptr noundef %41) #11
  unreachable

42:                                               ; preds = %28
  %43 = load ptr, ptr %5, align 8, !tbaa !13
  %44 = getelementptr inbounds ptr, ptr %43, i64 0
  %45 = load ptr, ptr %44, align 8, !tbaa !4
  %46 = call i32 @strcmp(ptr noundef @.str.159, ptr noundef %45) #13
  %47 = icmp ne i32 %46, 0
  br i1 %47, label %49, label %48

48:                                               ; preds = %42
  store i32 -1, ptr %10, align 4, !tbaa !11
  br label %94

49:                                               ; preds = %42
  store i32 0, ptr %10, align 4, !tbaa !11
  br label %50

50:                                               ; preds = %71, %49
  %51 = load i32, ptr %10, align 4, !tbaa !11
  %52 = sext i32 %51 to i64
  %53 = getelementptr inbounds [6 x %struct.anon.0], ptr %7, i64 0, i64 %52
  %54 = getelementptr inbounds nuw %struct.anon.0, ptr %53, i32 0, i32 0
  %55 = load ptr, ptr %54, align 16, !tbaa !45
  %56 = icmp ne ptr %55, null
  br i1 %56, label %57, label %68

57:                                               ; preds = %50
  %58 = load i32, ptr %10, align 4, !tbaa !11
  %59 = sext i32 %58 to i64
  %60 = getelementptr inbounds [6 x %struct.anon.0], ptr %7, i64 0, i64 %59
  %61 = getelementptr inbounds nuw %struct.anon.0, ptr %60, i32 0, i32 0
  %62 = load ptr, ptr %61, align 16, !tbaa !45
  %63 = load ptr, ptr %5, align 8, !tbaa !13
  %64 = getelementptr inbounds ptr, ptr %63, i64 0
  %65 = load ptr, ptr %64, align 8, !tbaa !4
  %66 = call i32 @strcmp(ptr noundef %62, ptr noundef %65) #13
  %67 = icmp ne i32 %66, 0
  br label %68

68:                                               ; preds = %57, %50
  %69 = phi i1 [ false, %50 ], [ %67, %57 ]
  br i1 %69, label %70, label %74

70:                                               ; preds = %68
  br label %71

71:                                               ; preds = %70
  %72 = load i32, ptr %10, align 4, !tbaa !11
  %73 = add nsw i32 %72, 1
  store i32 %73, ptr %10, align 4, !tbaa !11
  br label %50, !llvm.loop !48

74:                                               ; preds = %68
  %75 = load i32, ptr %10, align 4, !tbaa !11
  %76 = icmp sgt i32 %75, 0
  br i1 %76, label %77, label %93

77:                                               ; preds = %74
  %78 = load i32, ptr %10, align 4, !tbaa !11
  %79 = sext i32 %78 to i64
  %80 = getelementptr inbounds [6 x %struct.anon.0], ptr %7, i64 0, i64 %79
  %81 = getelementptr inbounds nuw %struct.anon.0, ptr %80, i32 0, i32 0
  %82 = load ptr, ptr %81, align 16, !tbaa !45
  %83 = icmp ne ptr %82, null
  br i1 %83, label %93, label %84

84:                                               ; preds = %77
  %85 = call ptr @_(ptr noundef @.str.160)
  %86 = load ptr, ptr %5, align 8, !tbaa !13
  %87 = getelementptr inbounds ptr, ptr %86, i64 0
  %88 = load ptr, ptr %87, align 8, !tbaa !4
  %89 = call i32 (ptr, ...) @error(ptr noundef %85, ptr noundef %88)
  %90 = call i32 @const_error()
  %91 = getelementptr inbounds [2 x ptr], ptr %9, i64 0, i64 0
  %92 = getelementptr inbounds [1 x %struct.option], ptr %6, i64 0, i64 0
  call void @usage_with_options(ptr noundef %91, ptr noundef %92) #11
  unreachable

93:                                               ; preds = %77, %74
  br label %94

94:                                               ; preds = %93, %48
  %95 = load i32, ptr %4, align 4, !tbaa !11
  %96 = add nsw i32 %95, -1
  store i32 %96, ptr %4, align 4, !tbaa !11
  %97 = load ptr, ptr %5, align 8, !tbaa !13
  %98 = getelementptr inbounds nuw ptr, ptr %97, i32 1
  store ptr %98, ptr %5, align 8, !tbaa !13
  %99 = load i32, ptr %4, align 4, !tbaa !11
  %100 = load ptr, ptr %5, align 8, !tbaa !13
  %101 = getelementptr inbounds [2 x ptr], ptr %9, i64 0, i64 0
  %102 = getelementptr inbounds [1 x %struct.option], ptr %6, i64 0, i64 0
  call void @setup_enlistment_directory(i32 noundef %99, ptr noundef %100, ptr noundef %101, ptr noundef %102, ptr noundef null)
  call void @strbuf_release(ptr noundef %8)
  %103 = load i32, ptr %10, align 4, !tbaa !11
  %104 = icmp eq i32 %103, 0
  br i1 %104, label %105, label %107

105:                                              ; preds = %94
  %106 = call i32 @register_dir()
  store i32 %106, ptr %3, align 4
  store i32 1, ptr %11, align 4
  br label %143

107:                                              ; preds = %94
  %108 = load i32, ptr %10, align 4, !tbaa !11
  %109 = icmp sgt i32 %108, 0
  br i1 %109, label %110, label %117

110:                                              ; preds = %107
  %111 = load i32, ptr %10, align 4, !tbaa !11
  %112 = sext i32 %111 to i64
  %113 = getelementptr inbounds [6 x %struct.anon.0], ptr %7, i64 0, i64 %112
  %114 = getelementptr inbounds nuw %struct.anon.0, ptr %113, i32 0, i32 1
  %115 = load ptr, ptr %114, align 8, !tbaa !49
  %116 = call i32 (ptr, ...) @run_git(ptr noundef @.str.135, ptr noundef @.str.13, ptr noundef @.str.161, ptr noundef %115, ptr noundef null)
  store i32 %116, ptr %3, align 4
  store i32 1, ptr %11, align 4
  br label %143

117:                                              ; preds = %107
  %118 = call i32 @register_dir()
  %119 = icmp ne i32 %118, 0
  br i1 %119, label %120, label %121

120:                                              ; preds = %117
  store i32 -1, ptr %3, align 4
  store i32 1, ptr %11, align 4
  br label %143

121:                                              ; preds = %117
  store i32 1, ptr %10, align 4, !tbaa !11
  br label %122

122:                                              ; preds = %139, %121
  %123 = load i32, ptr %10, align 4, !tbaa !11
  %124 = sext i32 %123 to i64
  %125 = getelementptr inbounds [6 x %struct.anon.0], ptr %7, i64 0, i64 %124
  %126 = getelementptr inbounds nuw %struct.anon.0, ptr %125, i32 0, i32 0
  %127 = load ptr, ptr %126, align 16, !tbaa !45
  %128 = icmp ne ptr %127, null
  br i1 %128, label %129, label %142

129:                                              ; preds = %122
  %130 = load i32, ptr %10, align 4, !tbaa !11
  %131 = sext i32 %130 to i64
  %132 = getelementptr inbounds [6 x %struct.anon.0], ptr %7, i64 0, i64 %131
  %133 = getelementptr inbounds nuw %struct.anon.0, ptr %132, i32 0, i32 1
  %134 = load ptr, ptr %133, align 8, !tbaa !49
  %135 = call i32 (ptr, ...) @run_git(ptr noundef @.str.135, ptr noundef @.str.13, ptr noundef @.str.161, ptr noundef %134, ptr noundef null)
  %136 = icmp ne i32 %135, 0
  br i1 %136, label %137, label %138

137:                                              ; preds = %129
  store i32 -1, ptr %3, align 4
  store i32 1, ptr %11, align 4
  br label %143

138:                                              ; preds = %129
  br label %139

139:                                              ; preds = %138
  %140 = load i32, ptr %10, align 4, !tbaa !11
  %141 = add nsw i32 %140, 1
  store i32 %141, ptr %10, align 4, !tbaa !11
  br label %122, !llvm.loop !50

142:                                              ; preds = %122
  store i32 0, ptr %3, align 4
  store i32 1, ptr %11, align 4
  br label %143

143:                                              ; preds = %142, %137, %120, %110, %105
  call void @llvm.lifetime.end.p0(i64 4, ptr %10) #12
  call void @llvm.lifetime.end.p0(i64 16, ptr %9) #12
  call void @llvm.lifetime.end.p0(i64 24, ptr %8) #12
  call void @llvm.lifetime.end.p0(i64 96, ptr %7) #12
  call void @llvm.lifetime.end.p0(i64 88, ptr %6) #12
  %144 = load i32, ptr %3, align 4
  ret i32 %144
}