; Function Attrs: nounwind uwtable
define internal i32 @cmd_run(i32 noundef %0, ptr noundef %1) #2 {
  %3 = alloca [1 x %struct.option], align 16
  %4 = alloca %struct.strbuf, align 8
  %5 = alloca [2 x ptr], align 16
  call void @llvm.lifetime.start.p0(i64 88, ptr nonnull %3) #18
  call void @llvm.memset.p0.i64(ptr noundef nonnull align 16 dereferenceable(88) %3, i8 0, i64 88, i1 false)
  call void @llvm.lifetime.start.p0(i64 24, ptr nonnull %4) #18
  call void @llvm.memcpy.p0.p0.i64(ptr noundef nonnull align 8 dereferenceable(24) %4, ptr noundef nonnull align 8 dereferenceable(24) @__const.cmd_diagnose.diagnostics_root, i64 24, i1 false)
  call void @llvm.lifetime.start.p0(i64 16, ptr nonnull %5) #18
  call void @llvm.memset.p0.i64(ptr noundef nonnull align 16 dereferenceable(16) %5, i8 0, i64 16, i1 false)
  call void @strbuf_add(ptr noundef nonnull %4, ptr noundef nonnull @.str.158, i64 noundef 40) #18
  br label %6

6:                                                ; preds = %2, %6
  %indvars.iv = phi i64 [ 0, %2 ], [ %indvars.iv.next, %6 ]
  %7 = phi ptr [ @.str.127, %2 ], [ %9, %6 ]
  call void (ptr, ptr, ...) @strbuf_addf(ptr noundef nonnull %4, ptr noundef nonnull @.str.7, ptr noundef nonnull %7) #18
  %indvars.iv.next = add nuw nsw i64 %indvars.iv, 1
  %8 = getelementptr inbounds nuw [6 x %struct.anon.0], ptr @__const.cmd_run.tasks, i64 0, i64 %indvars.iv.next
  %9 = load ptr, ptr %8, align 16, !tbaa !39
  %exitcond = icmp eq i64 %indvars.iv.next, 5
  br i1 %exitcond, label %10, label %6, !llvm.loop !41

10:                                               ; preds = %6
  %11 = getelementptr inbounds nuw i8, ptr %4, i64 16
  %12 = load ptr, ptr %11, align 8, !tbaa !17
  store ptr %12, ptr %5, align 16, !tbaa !4
  %13 = call i32 @parse_options(i32 noundef %0, ptr noundef %1, ptr noundef null, ptr noundef nonnull %3, ptr noundef nonnull %5, i32 noundef 0) #18
  %.not28 = icmp eq i32 %13, 0
  br i1 %.not28, label %14, label %15

14:                                               ; preds = %10
  call void @usage_with_options(ptr noundef nonnull %5, ptr noundef nonnull %3) #17
  unreachable

15:                                               ; preds = %10
  %16 = load ptr, ptr %1, align 8, !tbaa !4
  %17 = call i32 @strcmp(ptr noundef nonnull dereferenceable(4) @.str.159, ptr noundef nonnull dereferenceable(1) %16) #19
  %.not29 = icmp eq i32 %17, 0
  br i1 %.not29, label %.thread, label %.preheader38

.preheader38:                                     ; preds = %15, %20
  %indvars.iv45 = phi i64 [ %indvars.iv.next46, %20 ], [ 0, %15 ]
  %18 = phi ptr [ %22, %20 ], [ @.str.127, %15 ]
  %19 = call i32 @strcmp(ptr noundef nonnull dereferenceable(1) %18, ptr noundef nonnull dereferenceable(1) %16) #19
  %.not31 = icmp eq i32 %19, 0
  br i1 %.not31, label %.thread.loopexit, label %20

20:                                               ; preds = %.preheader38
  %indvars.iv.next46 = add nuw nsw i64 %indvars.iv45, 1
  %21 = getelementptr inbounds nuw [6 x %struct.anon.0], ptr @__const.cmd_run.tasks, i64 0, i64 %indvars.iv.next46
  %22 = load ptr, ptr %21, align 16, !tbaa !39
  %exitcond48 = icmp eq i64 %indvars.iv.next46, 5
  br i1 %exitcond48, label %.critedge, label %.preheader38, !llvm.loop !42

.critedge:                                        ; preds = %20
  %23 = call fastcc ptr @_(ptr noundef nonnull @.str.160)
  %24 = load ptr, ptr %1, align 8, !tbaa !4
  %25 = call i32 (ptr, ...) @error(ptr noundef %23, ptr noundef %24) #18
  call void @usage_with_options(ptr noundef nonnull %5, ptr noundef nonnull %3) #17
  unreachable

.thread.loopexit:                                 ; preds = %.preheader38
  %26 = trunc nuw nsw i64 %indvars.iv45 to i32
  br label %.thread

.thread:                                          ; preds = %.thread.loopexit, %15
  %.1 = phi i32 [ -1, %15 ], [ %26, %.thread.loopexit ]
  %27 = add nsw i32 %13, -1
  %28 = getelementptr inbounds nuw i8, ptr %1, i64 8
  call fastcc void @setup_enlistment_directory(i32 noundef %27, ptr noundef nonnull %28, ptr noundef %5, ptr noundef %3, ptr noundef null)
  call void @strbuf_release(ptr noundef nonnull %4) #18
  %29 = icmp eq i32 %.1, 0
  br i1 %29, label %30, label %32

30:                                               ; preds = %.thread
  %31 = call fastcc i32 @register_dir()
  br label %.loopexit

32:                                               ; preds = %.thread
  %33 = icmp sgt i32 %.1, 0
  br i1 %33, label %34, label %39

34:                                               ; preds = %32
  %35 = zext nneg i32 %.1 to i64
  %36 = getelementptr inbounds nuw [6 x %struct.anon.0], ptr @__const.cmd_run.tasks, i64 0, i64 %35, i32 1
  %37 = load ptr, ptr %36, align 8, !tbaa !43
  %38 = call i32 (ptr, ...) @run_git(ptr noundef nonnull @.str.135, ptr noundef nonnull @.str.13, ptr noundef nonnull @.str.161, ptr noundef %37, ptr noundef null)
  br label %.loopexit

39:                                               ; preds = %32
  %40 = call fastcc i32 @register_dir()
  %.not34 = icmp eq i32 %40, 0
  br i1 %.not34, label %.preheader, label %.loopexit

41:                                               ; preds = %.preheader
  %indvars.iv.next50 = add nuw nsw i64 %indvars.iv49, 1
  %42 = getelementptr inbounds nuw [6 x %struct.anon.0], ptr @__const.cmd_run.tasks, i64 0, i64 %indvars.iv.next50
  %exitcond52 = icmp eq i64 %indvars.iv.next50, 5
  br i1 %exitcond52, label %.loopexit, label %.preheader, !llvm.loop !44

.preheader:                                       ; preds = %39, %41
  %indvars.iv49 = phi i64 [ %indvars.iv.next50, %41 ], [ 1, %39 ]
  %43 = phi ptr [ %42, %41 ], [ getelementptr inbounds nuw (i8, ptr @__const.cmd_run.tasks, i64 16), %39 ]
  %44 = getelementptr inbounds nuw i8, ptr %43, i64 8
  %45 = load ptr, ptr %44, align 8, !tbaa !43
  %46 = call i32 (ptr, ...) @run_git(ptr noundef nonnull @.str.135, ptr noundef nonnull @.str.13, ptr noundef nonnull @.str.161, ptr noundef %45, ptr noundef null)
  %.not36 = icmp eq i32 %46, 0
  br i1 %.not36, label %41, label %.loopexit

.loopexit:                                        ; preds = %41, %.preheader, %39, %34, %30
  %.024 = phi i32 [ %31, %30 ], [ %38, %34 ], [ -1, %39 ], [ 0, %41 ], [ -1, %.preheader ]
  call void @llvm.lifetime.end.p0(i64 16, ptr nonnull %5) #18
  call void @llvm.lifetime.end.p0(i64 24, ptr nonnull %4) #18
  call void @llvm.lifetime.end.p0(i64 88, ptr nonnull %3) #18
  ret i32 %.024
}